target datalayout = "e-m:e-p270:32:32-p271:32:32-p272:64:64-i64:64-i128:128-f80:128-n8:16:32:64-S128"
target triple = "x86_64-pc-linux-gnu"

%struct.expert_field = type { i32, i32 }

@ei_length_clamped = internal global %struct.expert_field zeroinitializer, align 4

; Function Attrs: null_pointer_is_valid sspstrong uwtable
define internal i32 @get_clamped_length(i64 noundef %0, ptr noundef %1, ptr noundef %2) #0 {
  %4 = alloca i64, align 8
  %5 = alloca ptr, align 8
  %6 = alloca ptr, align 8
  %7 = alloca i32, align 4
  store i64 %0, ptr %4, align 8
  store ptr %1, ptr %5, align 8
  store ptr %2, ptr %6, align 8
  call void @llvm.lifetime.start.p0(i64 4, ptr %7) #11
  %8 = load i64, ptr %4, align 8
  %9 = icmp ugt i64 %8, 2147483647
  br i1 %9, label %10, label %21

10:                                               ; preds = %3
  store i32 2147483647, ptr %7, align 4
  %11 = load ptr, ptr %5, align 8
  %12 = icmp ne ptr %11, null
  br i1 %12, label %13, label %20

13:                                               ; preds = %10
  %14 = load ptr, ptr %6, align 8
  %15 = icmp ne ptr %14, null
  br i1 %15, label %16, label %20

16:                                               ; preds = %13
  %17 = load ptr, ptr %5, align 8
  %18 = load ptr, ptr %6, align 8
  %19 = call ptr @expert_add_info(ptr noundef %17, ptr noundef %18, ptr noundef @ei_length_clamped)
  br label %20

20:                                               ; preds = %16, %13, %10
  br label %24

21:                                               ; preds = %3
  %22 = load i64, ptr %4, align 8
  %23 = trunc i64 %22 to i32
  store i32 %23, ptr %7, align 4
  br label %24

24:                                               ; preds = %21, %20
  %25 = load i32, ptr %7, align 4
  call void @llvm.lifetime.end.p0(i64 4, ptr %7) #11
  ret i32 %25
}

; Function Attrs: null_pointer_is_valid sspstrong uwtable
define internal i32 @tvb_get_sdnv(ptr noundef %0, i32 noundef %1, ptr noundef %2) #0 {
  %4 = alloca ptr, align 8
  %5 = alloca i32, align 4
  %6 = alloca ptr, align 8
  store ptr %0, ptr %4, align 8
  store i32 %1, ptr %5, align 4
  store ptr %2, ptr %6, align 8
  %7 = load ptr, ptr %4, align 8
  %8 = load i32, ptr %5, align 4
  %9 = load ptr, ptr %6, align 8
  %10 = call i32 @tvb_get_varint(ptr noundef %7, i32 noundef %8, i32 noundef 10, ptr noundef %9, i32 noundef 16)
  ret i32 %10
}

; Function Attrs: null_pointer_is_valid sspstrong uwtable
define internal i32 @get_v3_msg_len(ptr noundef %0, ptr noundef %1, i32 noundef %2, ptr noundef %3) #0 {
  %5 = alloca i32, align 4
  %6 = alloca ptr, align 8
  %7 = alloca ptr, align 8
  %8 = alloca i32, align 4
  %9 = alloca ptr, align 8
  %10 = alloca i32, align 4
  %11 = alloca i64, align 8
  %12 = alloca i32, align 4
  %13 = alloca i8, align 1
  %14 = alloca i32, align 4
  %15 = alloca i32, align 4
  store ptr %0, ptr %6, align 8
  store ptr %1, ptr %7, align 8
  store i32 %2, ptr %8, align 4
  store ptr %3, ptr %9, align 8
  call void @llvm.lifetime.start.p0(i64 4, ptr %10) #11
  %16 = load i32, ptr %8, align 4
  store i32 %16, ptr %10, align 4
  call void @llvm.lifetime.start.p0(i64 8, ptr %11) #11
  call void @llvm.lifetime.start.p0(i64 4, ptr %12) #11
  call void @llvm.lifetime.start.p0(i64 1, ptr %13) #11
  %17 = load ptr, ptr %7, align 8
  %18 = load i32, ptr %8, align 4
  %19 = call zeroext i8 @tvb_get_uint8(ptr noundef %17, i32 noundef %18)
  store i8 %19, ptr %13, align 1
  %20 = load i32, ptr %8, align 4
  %21 = add i32 %20, 1
  store i32 %21, ptr %8, align 4
  %22 = load i8, ptr %13, align 1
  %23 = zext i8 %22 to i32
  %24 = and i32 %23, 240
  switch i32 %24, label %80 [
    i32 16, label %25
    i32 32, label %40
    i32 64, label %51
    i32 48, label %51
    i32 80, label %52
    i32 96, label %69
  ]

25:                                               ; preds = %4
  %26 = load ptr, ptr %7, align 8
  %27 = load i32, ptr %8, align 4
  %28 = call i32 @tvb_get_sdnv(ptr noundef %26, i32 noundef %27, ptr noundef %11)
  store i32 %28, ptr %12, align 4
  %29 = load i32, ptr %12, align 4
  %30 = icmp eq i32 %29, 0
  br i1 %30, label %31, label %32

31:                                               ; preds = %25
  store i32 0, ptr %5, align 4
  store i32 1, ptr %14, align 4
  br label %85

32:                                               ; preds = %25
  call void @llvm.lifetime.start.p0(i64 4, ptr %15) #11
  %33 = load i64, ptr %11, align 8
  %34 = call i32 @get_clamped_length(i64 noundef %33, ptr noundef null, ptr noundef null)
  store i32 %34, ptr %15, align 4
  %35 = load i32, ptr %12, align 4
  %36 = load i32, ptr %15, align 4
  %37 = add i32 %35, %36
  %38 = load i32, ptr %8, align 4
  %39 = add i32 %38, %37
  store i32 %39, ptr %8, align 4
  store i32 2, ptr %14, align 4
  call void @llvm.lifetime.end.p0(i64 4, ptr %15) #11
  br label %81

40:                                               ; preds = %4
  %41 = load ptr, ptr %7, align 8
  %42 = load i32, ptr %8, align 4
  %43 = call i32 @tvb_get_sdnv(ptr noundef %41, i32 noundef %42, ptr noundef %11)
  store i32 %43, ptr %12, align 4
  %44 = load i32, ptr %12, align 4
  %45 = icmp eq i32 %44, 0
  br i1 %45, label %46, label %47

46:                                               ; preds = %40
  store i32 0, ptr %5, align 4
  store i32 1, ptr %14, align 4
  br label %85

47:                                               ; preds = %40
  %48 = load i32, ptr %12, align 4
  %49 = load i32, ptr %8, align 4
  %50 = add i32 %49, %48
  store i32 %50, ptr %8, align 4
  br label %81

51:                                               ; preds = %4, %4
  br label %81

52:                                               ; preds = %4
  %53 = load i8, ptr %13, align 1
  %54 = zext i8 %53 to i32
  %55 = and i32 %54, 2
  %56 = icmp ne i32 %55, 0
  br i1 %56, label %57, label %60

57:                                               ; preds = %52
  %58 = load i32, ptr %8, align 4
  %59 = add i32 %58, 1
  store i32 %59, ptr %8, align 4
  br label %60

60:                                               ; preds = %57, %52
  %61 = load i8, ptr %13, align 1
  %62 = zext i8 %61 to i32
  %63 = and i32 %62, 1
  %64 = icmp ne i32 %63, 0
  br i1 %64, label %65, label %68

65:                                               ; preds = %60
  %66 = load i32, ptr %8, align 4
  %67 = add i32 %66, 2
  store i32 %67, ptr %8, align 4
  br label %68

68:                                               ; preds = %65, %60
  br label %81

69:                                               ; preds = %4
  %70 = load ptr, ptr %7, align 8
  %71 = load i32, ptr %8, align 4
  %72 = call i32 @tvb_get_sdnv(ptr noundef %70, i32 noundef %71, ptr noundef %11)
  store i32 %72, ptr %12, align 4
  %73 = load i32, ptr %12, align 4
  %74 = icmp eq i32 %73, 0
  br i1 %74, label %75, label %76

75:                                               ; preds = %69
  store i32 0, ptr %5, align 4
  store i32 1, ptr %14, align 4
  br label %85

76:                                               ; preds = %69
  %77 = load i32, ptr %12, align 4
  %78 = load i32, ptr %8, align 4
  %79 = add i32 %78, %77
  store i32 %79, ptr %8, align 4
  br label %81

80:                                               ; preds = %4
  store i32 0, ptr %5, align 4
  store i32 1, ptr %14, align 4
  br label %85

81:                                               ; preds = %76, %68, %51, %47, %32
  %82 = load i32, ptr %8, align 4
  %83 = load i32, ptr %10, align 4
  %84 = sub i32 %82, %83
  store i32 %84, ptr %5, align 4
  store i32 1, ptr %14, align 4
  br label %85

85:                                               ; preds = %81, %80, %75, %46, %31
  call void @llvm.lifetime.end.p0(i64 1, ptr %13) #11
  call void @llvm.lifetime.end.p0(i64 4, ptr %12) #11
  call void @llvm.lifetime.end.p0(i64 8, ptr %11) #11
  call void @llvm.lifetime.end.p0(i64 4, ptr %10) #11
  %86 = load i32, ptr %5, align 4
  ret i32 %86
}