; Function Attrs: null_pointer_is_valid sspstrong uwtable
define internal fastcc i32 @get_v3_msg_len(ptr noundef %0, i32 noundef %1) unnamed_addr #0 {
  %3 = alloca i64, align 8
  call void @llvm.lifetime.start.p0(i64 8, ptr nonnull %3) #14
  %4 = tail call zeroext i8 @tvb_get_uint8(ptr noundef %0, i32 noundef %1)
  %5 = add i32 %1, 1
  %6 = zext i8 %4 to i32
  %7 = add nsw i32 %6, -16
  %8 = lshr i32 %7, 4
  switch i32 %8, label %32 [
    i32 0, label %9
    i32 1, label %15
    i32 3, label %30
    i32 2, label %30
    i32 4, label %20
    i32 5, label %25
  ]

9:                                                ; preds = %2
  %10 = call i32 @tvb_get_varint(ptr noundef %0, i32 noundef %5, i32 noundef 10, ptr noundef nonnull %3, i32 noundef 16)
  %11 = icmp eq i32 %10, 0
  br i1 %11, label %32, label %get_clamped_length.exit

get_clamped_length.exit:                          ; preds = %9
  %12 = load i64, ptr %3, align 8
  %spec.select12 = call i64 @llvm.umin.i64(i64 %12, i64 2147483647)
  %spec.select1 = trunc nuw nsw i64 %spec.select12 to i32
  %13 = add i32 %10, %5
  %14 = add i32 %13, %spec.select1
  br label %30

15:                                               ; preds = %2
  %16 = call i32 @tvb_get_varint(ptr noundef %0, i32 noundef %5, i32 noundef 10, ptr noundef nonnull %3, i32 noundef 16)
  %17 = icmp eq i32 %16, 0
  br i1 %17, label %32, label %18

18:                                               ; preds = %15
  %19 = add i32 %16, %5
  br label %30

20:                                               ; preds = %2
  %21 = and i32 %6, 2
  %.not = icmp eq i32 %21, 0
  %22 = add i32 %1, 2
  %spec.select = select i1 %.not, i32 %5, i32 %22
  %23 = shl nuw nsw i32 %6, 1
  %24 = and i32 %23, 2
  %spec.select32 = add i32 %spec.select, %24
  br label %30

25:                                               ; preds = %2
  %26 = call i32 @tvb_get_varint(ptr noundef %0, i32 noundef %5, i32 noundef 10, ptr noundef nonnull %3, i32 noundef 16)
  %27 = icmp eq i32 %26, 0
  br i1 %27, label %32, label %28

28:                                               ; preds = %25
  %29 = add i32 %26, %5
  br label %30

30:                                               ; preds = %20, %2, %2, %28, %18, %get_clamped_length.exit
  %.027 = phi i32 [ %29, %28 ], [ %5, %2 ], [ %5, %2 ], [ %19, %18 ], [ %14, %get_clamped_length.exit ], [ %spec.select32, %20 ]
  %31 = sub i32 %.027, %1
  br label %32

32:                                               ; preds = %2, %25, %15, %9, %30
  %.0 = phi i32 [ %31, %30 ], [ 0, %9 ], [ 0, %15 ], [ 0, %25 ], [ 0, %2 ]
  call void @llvm.lifetime.end.p0(i64 8, ptr nonnull %3) #14
  ret i32 %.0
}